; Function Attrs: mustprogress uwtable
define void @_ZNK22LteRlcStatisticsDialog12treeItemDataEP15QTreeWidgetItem(ptr dead_on_unwind noalias writable sret(%class.QList.19) align 8 %0, ptr nocapture noundef nonnull readnone align 8 dereferenceable(300) %1, ptr noundef %2) unnamed_addr #2 align 2 {
  %4 = icmp eq ptr %2, null
  br i1 %4, label %.thread11, label %5

5:                                                ; preds = %3
  %6 = tail call ptr @__dynamic_cast(ptr nonnull %2, ptr nonnull @_ZTI15QTreeWidgetItem, ptr nonnull @_ZTI24RlcChannelTreeWidgetItem, i64 0) #19
  %.not = icmp eq ptr %6, null
  br i1 %.not, label %8, label %7

7:                                                ; preds = %5
  tail call void @llvm.memset.p0.i64(ptr noundef nonnull align 8 dereferenceable(24) %0, i8 0, i64 24, i1 false), !alias.scope !15
  br label %11

8:                                                ; preds = %5
  %9 = tail call ptr @__dynamic_cast(ptr nonnull %2, ptr nonnull @_ZTI15QTreeWidgetItem, ptr nonnull @_ZTI19RlcUeTreeWidgetItem, i64 0) #19
  %.not8 = icmp eq ptr %9, null
  br i1 %.not8, label %.thread11, label %10

10:                                               ; preds = %8
  tail call void @_ZNK19RlcUeTreeWidgetItem7rowDataEv(ptr dead_on_unwind writable sret(%class.QList.19) align 8 %0, ptr noundef nonnull align 8 dereferenceable(496) %9)
  br label %11

.thread11:                                        ; preds = %3, %8
  tail call void @llvm.memset.p0.i64(ptr noundef nonnull align 8 dereferenceable(24) %0, i8 0, i64 24, i1 false)
  br label %11

11:                                               ; preds = %.thread11, %10, %7
  ret void
}